SF:/home/user/Corten-DevTools/components/cdp_types/src/errors.rs
FN:61,_RINvMs0_NtCs2iLi1iTl758_9cdp_types6errorsNtB6_8CdpError16method_not_foundRNtNtCs456UZznmu7y_5alloc6string6StringECs9J8EMj6cuk1_17integration_tests
FN:94,_RINvMs0_NtCs2iLi1iTl758_9cdp_types6errorsNtB6_8CdpError12server_errorReECsjZgyjPkdXUw_14network_domain
FN:72,_RINvMs0_NtCs2iLi1iTl758_9cdp_types6errorsNtB6_8CdpError14invalid_paramsNtNtCs456UZznmu7y_5alloc6string6StringECsjZgyjPkdXUw_14network_domain
FN:72,_RINvMs0_NtCs2iLi1iTl758_9cdp_types6errorsNtB6_8CdpError14invalid_paramsReECsjZgyjPkdXUw_14network_domain
FN:83,_RINvMs0_NtCs2iLi1iTl758_9cdp_types6errorsNtB6_8CdpError14internal_errorReECs7zSuaoOnZaY_16protocol_handler
FN:94,_RINvMs0_NtCs2iLi1iTl758_9cdp_types6errorsNtB6_8CdpError12server_errorNtNtCs456UZznmu7y_5alloc6string6StringEB8_
FN:61,_RINvMs0_NtCs2iLi1iTl758_9cdp_types6errorsNtB6_8CdpError16method_not_foundNtNtCs456UZznmu7y_5alloc6string6StringEB8_
FN:30,_RINvMs0_NtCs2iLi1iTl758_9cdp_types6errorsNtB6_8CdpError3newNtNtCs456UZznmu7y_5alloc6string6StringEB8_
FN:30,_RINvMs0_NtCs2iLi1iTl758_9cdp_types6errorsNtB6_8CdpError3newReEB8_
FN:39,_RINvMs0_NtCs2iLi1iTl758_9cdp_types6errorsNtB6_8CdpError9with_dataReEB8_
FN:83,_RINvMs0_NtCs2iLi1iTl758_9cdp_types6errorsNtB6_8CdpError14internal_errorpEB8_
FN:72,_RINvMs0_NtCs2iLi1iTl758_9cdp_types6errorsNtB6_8CdpError14invalid_paramspEB8_
FN:49,_RNvMs0_NtCs2iLi1iTl758_9cdp_types6errorsNtB5_8CdpError11parse_error
FN:55,_RNvMs0_NtCs2iLi1iTl758_9cdp_types6errorsNtB5_8CdpError15invalid_request
FN:21,_RNvXNtCs2iLi1iTl758_9cdp_types6errorsNtB2_8CdpErrorNtNtCs4Vq2ZLagKfv_4core3fmt7Display3fmt
FN:136,_RNvXs1_NtCs2iLi1iTl758_9cdp_types6errorsNtB5_8CdpErrorINtNtCs4Vq2ZLagKfv_4core7convert4FromNtB5_16CdpProtocolErrorE4from
FN:94,_RINvMs0_NtCs2iLi1iTl758_9cdp_types6errorsNtB6_8CdpError12server_errorReECsk2LvVmggazd_14network_domain
FN:72,_RINvMs0_NtCs2iLi1iTl758_9cdp_types6errorsNtB6_8CdpError14invalid_paramsNtNtCs456UZznmu7y_5alloc6string6StringECsk2LvVmggazd_14network_domain
FN:72,_RINvMs0_NtCs2iLi1iTl758_9cdp_types6errorsNtB6_8CdpError14invalid_paramsReECsk2LvVmggazd_14network_domain
FNDA:0,_RINvMs0_NtCs2iLi1iTl758_9cdp_types6errorsNtB6_8CdpError16method_not_foundRNtNtCs456UZznmu7y_5alloc6string6StringECs9J8EMj6cuk1_17integration_tests
FNDA:0,_RINvMs0_NtCs2iLi1iTl758_9cdp_types6errorsNtB6_8CdpError12server_errorReECsjZgyjPkdXUw_14network_domain
FNDA:0,_RINvMs0_NtCs2iLi1iTl758_9cdp_types6errorsNtB6_8CdpError14invalid_paramsNtNtCs456UZznmu7y_5alloc6string6StringECsjZgyjPkdXUw_14network_domain
FNDA:3,_RINvMs0_NtCs2iLi1iTl758_9cdp_types6errorsNtB6_8CdpError14invalid_paramsReECsjZgyjPkdXUw_14network_domain
FNDA:0,_RINvMs0_NtCs2iLi1iTl758_9cdp_types6errorsNtB6_8CdpError14internal_errorReECs7zSuaoOnZaY_16protocol_handler
FNDA:2,_RINvMs0_NtCs2iLi1iTl758_9cdp_types6errorsNtB6_8CdpError12server_errorNtNtCs456UZznmu7y_5alloc6string6StringEB8_
FNDA:2,_RINvMs0_NtCs2iLi1iTl758_9cdp_types6errorsNtB6_8CdpError16method_not_foundNtNtCs456UZznmu7y_5alloc6string6StringEB8_
FNDA:2,_RINvMs0_NtCs2iLi1iTl758_9cdp_types6errorsNtB6_8CdpError3newNtNtCs456UZznmu7y_5alloc6string6StringEB8_
FNDA:0,_RINvMs0_NtCs2iLi1iTl758_9cdp_types6errorsNtB6_8CdpError3newReEB8_
FNDA:5,_RINvMs0_NtCs2iLi1iTl758_9cdp_types6errorsNtB6_8CdpError9with_dataReEB8_
FNDA:0,_RINvMs0_NtCs2iLi1iTl758_9cdp_types6errorsNtB6_8CdpError14internal_errorpEB8_
FNDA:0,_RINvMs0_NtCs2iLi1iTl758_9cdp_types6errorsNtB6_8CdpError14invalid_paramspEB8_
FNDA:0,_RNvMs0_NtCs2iLi1iTl758_9cdp_types6errorsNtB5_8CdpError11parse_error
FNDA:0,_RNvMs0_NtCs2iLi1iTl758_9cdp_types6errorsNtB5_8CdpError15invalid_request
FNDA:0,_RNvXNtCs2iLi1iTl758_9cdp_types6errorsNtB2_8CdpErrorNtNtCs4Vq2ZLagKfv_4core3fmt7Display3fmt
FNDA:0,_RNvXs1_NtCs2iLi1iTl758_9cdp_types6errorsNtB5_8CdpErrorINtNtCs4Vq2ZLagKfv_4core7convert4FromNtB5_16CdpProtocolErrorE4from
FNDA:0,_RINvMs0_NtCs2iLi1iTl758_9cdp_types6errorsNtB6_8CdpError12server_errorReECsk2LvVmggazd_14network_domain
FNDA:0,_RINvMs0_NtCs2iLi1iTl758_9cdp_types6errorsNtB6_8CdpError14invalid_paramsNtNtCs456UZznmu7y_5alloc6string6StringECsk2LvVmggazd_14network_domain
FNDA:0,_RINvMs0_NtCs2iLi1iTl758_9cdp_types6errorsNtB6_8CdpError14invalid_paramsReECsk2LvVmggazd_14network_domain
FNF:10
FNH:5
DA:21,0
DA:22,0
DA:23,0
DA:30,2
DA:31,2
DA:32,2
DA:33,2
DA:34,2
DA:35,2
DA:36,2
DA:39,5
DA:40,5
DA:41,5
DA:42,5
DA:43,5
DA:44,5
DA:45,5
DA:49,0
DA:50,0
DA:51,0
DA:55,0
DA:56,0
DA:57,0
DA:61,2
DA:62,2
DA:63,2
DA:66,2
DA:68,2
DA:72,3
DA:73,3
DA:74,3
DA:77,3
DA:79,3
DA:83,0
DA:84,0
DA:85,0
DA:88,0
DA:90,0
DA:94,2
DA:95,2
DA:96,2
DA:97,0
DA:99,2
DA:100,2
DA:136,0
DA:137,0
DA:138,0
DA:141,0
DA:143,0
DA:144,0
DA:145,0
DA:147,0
DA:148,0
DA:149,0
DA:151,0
DA:152,0
DA:154,0
DA:156,0
BRF:0
BRH:0
LF:58
LH:29
end_of_record
SF:/home/user/Corten-DevTools/components/network_domain/src/lib.rs
FN:241,_RNvMCsjZgyjPkdXUw_14network_domainNtB2_13NetworkDomain11has_request
FN:200,_RNvMCsjZgyjPkdXUw_14network_domainNtB2_13NetworkDomain13track_request
FN:249,_RNvMCsjZgyjPkdXUw_14network_domainNtB2_13NetworkDomain15untrack_request
FN:129,_RNvMCsjZgyjPkdXUw_14network_domainNtB2_13NetworkDomain17get_response_body
FN:220,_RNvMCsjZgyjPkdXUw_14network_domainNtB2_13NetworkDomain19store_response_body
FN:258,_RNvMCsjZgyjPkdXUw_14network_domainNtB2_13NetworkDomain23is_interception_enabled
FN:161,_RNvMCsjZgyjPkdXUw_14network_domainNtB2_13NetworkDomain24set_request_interception
FN:70,_RNvMCsjZgyjPkdXUw_14network_domainNtB2_13NetworkDomain3new
FN:85,_RNvMCsjZgyjPkdXUw_14network_domainNtB2_13NetworkDomain6enable
FN:110,_RNvMCsjZgyjPkdXUw_14network_domainNtB2_13NetworkDomain7disable
FN:284,_RNvXs5_CsjZgyjPkdXUw_14network_domainNtB5_13NetworkDomainNtCs7zSuaoOnZaY_16protocol_handler13DomainHandler13handle_method
FN:272,_RNvXs5_CsjZgyjPkdXUw_14network_domainNtB5_13NetworkDomainNtCs7zSuaoOnZaY_16protocol_handler13DomainHandler4name
FN:264,_RNvXs_CsjZgyjPkdXUw_14network_domainNtB4_13NetworkDomainNtNtCs4Vq2ZLagKfv_4core7default7Default7default
FN:130,_RNCNCNvMCsjZgyjPkdXUw_14network_domainNtB6_13NetworkDomain17get_response_body00B6_
FN:135,_RNCNCNvMCsjZgyjPkdXUw_14network_domainNtB6_13NetworkDomain17get_response_body0s0_0B6_
FN:139,_RNCNCNvMCsjZgyjPkdXUw_14network_domainNtB6_13NetworkDomain17get_response_body0s1_0B6_
FN:146,_RNCNCNvMCsjZgyjPkdXUw_14network_domainNtB6_13NetworkDomain17get_response_body0s2_0B6_
FN:134,_RNCNCNvMCsjZgyjPkdXUw_14network_domainNtB6_13NetworkDomain17get_response_body0s_0B6_
FN:162,_RNCNCNvMCsjZgyjPkdXUw_14network_domainNtB6_13NetworkDomain24set_request_interception00B6_
FN:167,_RNCNCNvMCsjZgyjPkdXUw_14network_domainNtB6_13NetworkDomain24set_request_interception0s0_0B6_
FN:178,_RNCNCNvMCsjZgyjPkdXUw_14network_domainNtB6_13NetworkDomain24set_request_interception0s1_0B6_
FN:166,_RNCNCNvMCsjZgyjPkdXUw_14network_domainNtB6_13NetworkDomain24set_request_interception0s_0B6_
FN:129,_RNCNvMCsjZgyjPkdXUw_14network_domainNtB4_13NetworkDomain17get_response_body0B4_
FN:161,_RNCNvMCsjZgyjPkdXUw_14network_domainNtB4_13NetworkDomain24set_request_interception0B4_
FN:85,_RNCNvMCsjZgyjPkdXUw_14network_domainNtB4_13NetworkDomain6enable0B4_
FN:110,_RNCNvMCsjZgyjPkdXUw_14network_domainNtB4_13NetworkDomain7disable0B4_
FN:241,_RNvMCsk2LvVmggazd_14network_domainNtB2_13NetworkDomain11has_request
FN:200,_RNvMCsk2LvVmggazd_14network_domainNtB2_13NetworkDomain13track_request
FN:129,_RNvMCsk2LvVmggazd_14network_domainNtB2_13NetworkDomain17get_response_body
FN:220,_RNvMCsk2LvVmggazd_14network_domainNtB2_13NetworkDomain19store_response_body
FN:258,_RNvMCsk2LvVmggazd_14network_domainNtB2_13NetworkDomain23is_interception_enabled
FN:161,_RNvMCsk2LvVmggazd_14network_domainNtB2_13NetworkDomain24set_request_interception
FN:70,_RNvMCsk2LvVmggazd_14network_domainNtB2_13NetworkDomain3new
FN:85,_RNvMCsk2LvVmggazd_14network_domainNtB2_13NetworkDomain6enable
FN:272,_RNvXs5_Csk2LvVmggazd_14network_domainNtB5_13NetworkDomainNtCs7zSuaoOnZaY_16protocol_handler13DomainHandler4name
FN:305,_RNvNtCsk2LvVmggazd_14network_domain5testss_15test_new_domain
FN:311,_RNvNtCsk2LvVmggazd_14network_domain5testss_17test_enable_basic
FN:340,_RNvNtCsk2LvVmggazd_14network_domain5testss_17test_interception
FN:318,_RNvNtCsk2LvVmggazd_14network_domain5testss_23test_track_and_retrieve
FN:130,_RNCNCNvMCsk2LvVmggazd_14network_domainNtB6_13NetworkDomain17get_response_body00B6_
FN:135,_RNCNCNvMCsk2LvVmggazd_14network_domainNtB6_13NetworkDomain17get_response_body0s0_0B6_
FN:139,_RNCNCNvMCsk2LvVmggazd_14network_domainNtB6_13NetworkDomain17get_response_body0s1_0B6_
FN:146,_RNCNCNvMCsk2LvVmggazd_14network_domainNtB6_13NetworkDomain17get_response_body0s2_0B6_
FN:134,_RNCNCNvMCsk2LvVmggazd_14network_domainNtB6_13NetworkDomain17get_response_body0s_0B6_
FN:162,_RNCNCNvMCsk2LvVmggazd_14network_domainNtB6_13NetworkDomain24set_request_interception00B6_
FN:167,_RNCNCNvMCsk2LvVmggazd_14network_domainNtB6_13NetworkDomain24set_request_interception0s0_0B6_
FN:178,_RNCNCNvMCsk2LvVmggazd_14network_domainNtB6_13NetworkDomain24set_request_interception0s1_0B6_
FN:166,_RNCNCNvMCsk2LvVmggazd_14network_domainNtB6_13NetworkDomain24set_request_interception0s_0B6_
FN:129,_RNCNvMCsk2LvVmggazd_14network_domainNtB4_13NetworkDomain17get_response_body0B4_
FN:161,_RNCNvMCsk2LvVmggazd_14network_domainNtB4_13NetworkDomain24set_request_interception0B4_
FN:85,_RNCNvMCsk2LvVmggazd_14network_domainNtB4_13NetworkDomain6enable0B4_
FN:305,_RNCNvNtCsk2LvVmggazd_14network_domain5testss_15test_new_domain0B5_
FN:311,_RNCNvNtCsk2LvVmggazd_14network_domain5testss_17test_enable_basic0B5_
FN:340,_RNCNvNtCsk2LvVmggazd_14network_domain5testss_17test_interception0B5_
FN:318,_RNCNvNtCsk2LvVmggazd_14network_domain5testss_23test_track_and_retrieve0B5_
FN:110,_RNCNvMCsk2LvVmggazd_14network_domainNtB4_13NetworkDomain7disable0B4_
FN:249,_RNvMCsk2LvVmggazd_14network_domainNtB2_13NetworkDomain15untrack_request
FN:110,_RNvMCsk2LvVmggazd_14network_domainNtB2_13NetworkDomain7disable
FN:284,_RNvXs5_Csk2LvVmggazd_14network_domainNtB5_13NetworkDomainNtCs7zSuaoOnZaY_16protocol_handler13DomainHandler13handle_method
FN:264,_RNvXs_Csk2LvVmggazd_14network_domainNtB4_13NetworkDomainNtNtCs4Vq2ZLagKfv_4core7default7Default7default
FNDA:23,_RNvMCsjZgyjPkdXUw_14network_domainNtB2_13NetworkDomain11has_request
FNDA:16,_RNvMCsjZgyjPkdXUw_14network_domainNtB2_13NetworkDomain13track_request
FNDA:1,_RNvMCsjZgyjPkdXUw_14network_domainNtB2_13NetworkDomain15untrack_request
FNDA:9,_RNvMCsjZgyjPkdXUw_14network_domainNtB2_13NetworkDomain17get_response_body
FNDA:4,_RNvMCsjZgyjPkdXUw_14network_domainNtB2_13NetworkDomain19store_response_body
FNDA:2,_RNvMCsjZgyjPkdXUw_14network_domainNtB2_13NetworkDomain23is_interception_enabled
FNDA:6,_RNvMCsjZgyjPkdXUw_14network_domainNtB2_13NetworkDomain24set_request_interception
FNDA:28,_RNvMCsjZgyjPkdXUw_14network_domainNtB2_13NetworkDomain3new
FNDA:8,_RNvMCsjZgyjPkdXUw_14network_domainNtB2_13NetworkDomain6enable
FNDA:4,_RNvMCsjZgyjPkdXUw_14network_domainNtB2_13NetworkDomain7disable
FNDA:19,_RNvXs5_CsjZgyjPkdXUw_14network_domainNtB5_13NetworkDomainNtCs7zSuaoOnZaY_16protocol_handler13DomainHandler13handle_method
FNDA:11,_RNvXs5_CsjZgyjPkdXUw_14network_domainNtB5_13NetworkDomainNtCs7zSuaoOnZaY_16protocol_handler13DomainHandler4name
FNDA:0,_RNvXs_CsjZgyjPkdXUw_14network_domainNtB4_13NetworkDomainNtNtCs4Vq2ZLagKfv_4core7default7Default7default
FNDA:1,_RNCNCNvMCsjZgyjPkdXUw_14network_domainNtB6_13NetworkDomain17get_response_body00B6_
FNDA:2,_RNCNCNvMCsjZgyjPkdXUw_14network_domainNtB6_13NetworkDomain17get_response_body0s0_0B6_
FNDA:2,_RNCNCNvMCsjZgyjPkdXUw_14network_domainNtB6_13NetworkDomain17get_response_body0s1_0B6_
FNDA:0,_RNCNCNvMCsjZgyjPkdXUw_14network_domainNtB6_13NetworkDomain17get_response_body0s2_0B6_
FNDA:6,_RNCNCNvMCsjZgyjPkdXUw_14network_domainNtB6_13NetworkDomain17get_response_body0s_0B6_
FNDA:0,_RNCNCNvMCsjZgyjPkdXUw_14network_domainNtB6_13NetworkDomain24set_request_interception00B6_
FNDA:0,_RNCNCNvMCsjZgyjPkdXUw_14network_domainNtB6_13NetworkDomain24set_request_interception0s0_0B6_
FNDA:0,_RNCNCNvMCsjZgyjPkdXUw_14network_domainNtB6_13NetworkDomain24set_request_interception0s1_0B6_
FNDA:6,_RNCNCNvMCsjZgyjPkdXUw_14network_domainNtB6_13NetworkDomain24set_request_interception0s_0B6_
FNDA:9,_RNCNvMCsjZgyjPkdXUw_14network_domainNtB4_13NetworkDomain17get_response_body0B4_
FNDA:6,_RNCNvMCsjZgyjPkdXUw_14network_domainNtB4_13NetworkDomain24set_request_interception0B4_
FNDA:8,_RNCNvMCsjZgyjPkdXUw_14network_domainNtB4_13NetworkDomain6enable0B4_
FNDA:4,_RNCNvMCsjZgyjPkdXUw_14network_domainNtB4_13NetworkDomain7disable0B4_
FNDA:1,_RNvMCsk2LvVmggazd_14network_domainNtB2_13NetworkDomain11has_request
FNDA:1,_RNvMCsk2LvVmggazd_14network_domainNtB2_13NetworkDomain13track_request
FNDA:1,_RNvMCsk2LvVmggazd_14network_domainNtB2_13NetworkDomain17get_response_body
FNDA:1,_RNvMCsk2LvVmggazd_14network_domainNtB2_13NetworkDomain19store_response_body
FNDA:2,_RNvMCsk2LvVmggazd_14network_domainNtB2_13NetworkDomain23is_interception_enabled
FNDA:1,_RNvMCsk2LvVmggazd_14network_domainNtB2_13NetworkDomain24set_request_interception
FNDA:4,_RNvMCsk2LvVmggazd_14network_domainNtB2_13NetworkDomain3new
FNDA:1,_RNvMCsk2LvVmggazd_14network_domainNtB2_13NetworkDomain6enable
FNDA:1,_RNvXs5_Csk2LvVmggazd_14network_domainNtB5_13NetworkDomainNtCs7zSuaoOnZaY_16protocol_handler13DomainHandler4name
FNDA:1,_RNvNtCsk2LvVmggazd_14network_domain5testss_15test_new_domain
FNDA:1,_RNvNtCsk2LvVmggazd_14network_domain5testss_17test_enable_basic
FNDA:1,_RNvNtCsk2LvVmggazd_14network_domain5testss_17test_interception
FNDA:1,_RNvNtCsk2LvVmggazd_14network_domain5testss_23test_track_and_retrieve
FNDA:0,_RNCNCNvMCsk2LvVmggazd_14network_domainNtB6_13NetworkDomain17get_response_body00B6_
FNDA:0,_RNCNCNvMCsk2LvVmggazd_14network_domainNtB6_13NetworkDomain17get_response_body0s0_0B6_
FNDA:0,_RNCNCNvMCsk2LvVmggazd_14network_domainNtB6_13NetworkDomain17get_response_body0s1_0B6_
FNDA:0,_RNCNCNvMCsk2LvVmggazd_14network_domainNtB6_13NetworkDomain17get_response_body0s2_0B6_
FNDA:1,_RNCNCNvMCsk2LvVmggazd_14network_domainNtB6_13NetworkDomain17get_response_body0s_0B6_
FNDA:0,_RNCNCNvMCsk2LvVmggazd_14network_domainNtB6_13NetworkDomain24set_request_interception00B6_
FNDA:0,_RNCNCNvMCsk2LvVmggazd_14network_domainNtB6_13NetworkDomain24set_request_interception0s0_0B6_
FNDA:0,_RNCNCNvMCsk2LvVmggazd_14network_domainNtB6_13NetworkDomain24set_request_interception0s1_0B6_
FNDA:1,_RNCNCNvMCsk2LvVmggazd_14network_domainNtB6_13NetworkDomain24set_request_interception0s_0B6_
FNDA:1,_RNCNvMCsk2LvVmggazd_14network_domainNtB4_13NetworkDomain17get_response_body0B4_
FNDA:1,_RNCNvMCsk2LvVmggazd_14network_domainNtB4_13NetworkDomain24set_request_interception0B4_
FNDA:1,_RNCNvMCsk2LvVmggazd_14network_domainNtB4_13NetworkDomain6enable0B4_
FNDA:1,_RNCNvNtCsk2LvVmggazd_14network_domain5testss_15test_new_domain0B5_
FNDA:1,_RNCNvNtCsk2LvVmggazd_14network_domain5testss_17test_enable_basic0B5_
FNDA:1,_RNCNvNtCsk2LvVmggazd_14network_domain5testss_17test_interception0B5_
FNDA:1,_RNCNvNtCsk2LvVmggazd_14network_domain5testss_23test_track_and_retrieve0B5_
FNDA:0,_RNCNvMCsk2LvVmggazd_14network_domainNtB4_13NetworkDomain7disable0B4_
FNDA:0,_RNvMCsk2LvVmggazd_14network_domainNtB2_13NetworkDomain15untrack_request
FNDA:0,_RNvMCsk2LvVmggazd_14network_domainNtB2_13NetworkDomain7disable
FNDA:0,_RNvXs5_Csk2LvVmggazd_14network_domainNtB5_13NetworkDomainNtCs7zSuaoOnZaY_16protocol_handler13DomainHandler13handle_method
FNDA:0,_RNvXs_Csk2LvVmggazd_14network_domainNtB4_13NetworkDomainNtNtCs4Vq2ZLagKfv_4core7default7Default7default
FNF:34
FNH:29
DA:70,32
DA:71,32
DA:72,32
DA:73,32
DA:74,32
DA:75,32
DA:76,32
DA:85,9
DA:86,9
DA:94,9
DA:95,2
DA:96,2
DA:97,0
DA:98,2
DA:99,1
DA:100,1
DA:101,7
DA:103,9
DA:104,9
DA:110,4
DA:111,4
DA:119,4
DA:120,4
DA:129,10
DA:130,10
DA:132,9
DA:133,9
DA:134,9
DA:135,9
DA:137,7
DA:139,7
DA:140,2
DA:141,2
DA:143,5
DA:144,5
DA:145,5
DA:146,5
DA:148,5
DA:149,5
DA:150,5
DA:151,5
DA:152,10
DA:161,7
DA:162,7
DA:164,7
DA:165,7
DA:166,7
DA:167,7
DA:169,7
DA:170,0
DA:171,0
DA:175,7
DA:176,14
DA:177,7
DA:178,7
DA:179,7
DA:183,7
DA:184,7
DA:187,7
DA:189,7
DA:191,7
DA:192,7
DA:200,17
DA:201,17
DA:203,17
DA:204,17
DA:205,17
DA:206,17
DA:207,17
DA:208,17
DA:209,17
DA:211,17
DA:212,17
DA:220,5
DA:221,5
DA:223,5
DA:224,5
DA:225,5
DA:226,5
DA:227,0
DA:228,0
DA:232,5
DA:241,24
DA:242,24
DA:243,24
DA:249,1
DA:250,1
DA:251,1
DA:252,1
DA:258,4
DA:259,4
DA:260,4
DA:264,0
DA:265,0
DA:266,0
DA:272,12
DA:273,12
DA:274,12
DA:284,19
DA:287,19
DA:297,19
DA:305,1
DA:306,1
DA:307,1
DA:308,1
DA:311,1
DA:312,1
DA:313,1
DA:314,1
DA:315,1
DA:318,1
DA:319,1
DA:321,1
DA:322,1
DA:323,1
DA:324,1
DA:327,1
DA:329,1
DA:331,1
DA:332,1
DA:334,1
DA:335,1
DA:336,1
DA:337,1
DA:340,1
DA:341,1
DA:343,1
DA:345,1
DA:346,1
DA:349,1
DA:351,1
DA:352,1
BRF:0
BRH:0
LF:154
LH:142
end_of_record
SF:/home/user/Corten-DevTools/components/protocol_handler/src/lib.rs
FN:155,_RNCNCNvMCs7zSuaoOnZaY_16protocol_handlerNtB6_15ProtocolHandler13route_request00Cs9J8EMj6cuk1_17integration_tests
FN:136,_RNCNvMCs7zSuaoOnZaY_16protocol_handlerNtB4_15ProtocolHandler13route_request0Cs9J8EMj6cuk1_17integration_tests
FN:101,_RNCNvMCs7zSuaoOnZaY_16protocol_handlerNtB4_15ProtocolHandler14handle_message0Cs9J8EMj6cuk1_17integration_tests
FN:170,_RNvMCs7zSuaoOnZaY_16protocol_handlerNtB2_15ProtocolHandler12parse_method
FN:120,_RNvMCs7zSuaoOnZaY_16protocol_handlerNtB2_15ProtocolHandler13parse_request
FN:136,_RNvMCs7zSuaoOnZaY_16protocol_handlerNtB2_15ProtocolHandler13route_request
FN:101,_RNvMCs7zSuaoOnZaY_16protocol_handlerNtB2_15ProtocolHandler14handle_message
FN:68,_RNvMCs7zSuaoOnZaY_16protocol_handlerNtB2_15ProtocolHandler15register_domain
FN:81,_RNvMCs7zSuaoOnZaY_16protocol_handlerNtB2_15ProtocolHandler17unregister_domain
FN:199,_RNvMCs7zSuaoOnZaY_16protocol_handlerNtB2_15ProtocolHandler21create_error_response
FN:182,_RNvMCs7zSuaoOnZaY_16protocol_handlerNtB2_15ProtocolHandler23create_success_response
FN:51,_RNvMCs7zSuaoOnZaY_16protocol_handlerNtB2_15ProtocolHandler3new
FN:218,_RNvXs_Cs7zSuaoOnZaY_16protocol_handlerNtB4_15ProtocolHandlerNtNtCs4Vq2ZLagKfv_4core7default7Default7default
FN:122,_RNCNvMCs7zSuaoOnZaY_16protocol_handlerNtB4_15ProtocolHandler13parse_request0B4_
FN:129,_RNCNvMCs7zSuaoOnZaY_16protocol_handlerNtB4_15ProtocolHandler13parse_requests_0B4_
FN:206,_RNCNvMCs7zSuaoOnZaY_16protocol_handlerNtB4_15ProtocolHandler21create_error_response0B4_
FN:189,_RNCNvMCs7zSuaoOnZaY_16protocol_handlerNtB4_15ProtocolHandler23create_success_response0B4_
FNDA:0,_RNCNCNvMCs7zSuaoOnZaY_16protocol_handlerNtB6_15ProtocolHandler13route_request00Cs9J8EMj6cuk1_17integration_tests
FNDA:11,_RNCNvMCs7zSuaoOnZaY_16protocol_handlerNtB4_15ProtocolHandler13route_request0Cs9J8EMj6cuk1_17integration_tests
FNDA:11,_RNCNvMCs7zSuaoOnZaY_16protocol_handlerNtB4_15ProtocolHandler14handle_message0Cs9J8EMj6cuk1_17integration_tests
FNDA:11,_RNvMCs7zSuaoOnZaY_16protocol_handlerNtB2_15ProtocolHandler12parse_method
FNDA:11,_RNvMCs7zSuaoOnZaY_16protocol_handlerNtB2_15ProtocolHandler13parse_request
FNDA:11,_RNvMCs7zSuaoOnZaY_16protocol_handlerNtB2_15ProtocolHandler13route_request
FNDA:11,_RNvMCs7zSuaoOnZaY_16protocol_handlerNtB2_15ProtocolHandler14handle_message
FNDA:9,_RNvMCs7zSuaoOnZaY_16protocol_handlerNtB2_15ProtocolHandler15register_domain
FNDA:0,_RNvMCs7zSuaoOnZaY_16protocol_handlerNtB2_15ProtocolHandler17unregister_domain
FNDA:3,_RNvMCs7zSuaoOnZaY_16protocol_handlerNtB2_15ProtocolHandler21create_error_response
FNDA:8,_RNvMCs7zSuaoOnZaY_16protocol_handlerNtB2_15ProtocolHandler23create_success_response
FNDA:9,_RNvMCs7zSuaoOnZaY_16protocol_handlerNtB2_15ProtocolHandler3new
FNDA:0,_RNvXs_Cs7zSuaoOnZaY_16protocol_handlerNtB4_15ProtocolHandlerNtNtCs4Vq2ZLagKfv_4core7default7Default7default
FNDA:0,_RNCNvMCs7zSuaoOnZaY_16protocol_handlerNtB4_15ProtocolHandler13parse_request0B4_
FNDA:0,_RNCNvMCs7zSuaoOnZaY_16protocol_handlerNtB4_15ProtocolHandler13parse_requests_0B4_
FNDA:0,_RNCNvMCs7zSuaoOnZaY_16protocol_handlerNtB4_15ProtocolHandler21create_error_response0B4_
FNDA:0,_RNCNvMCs7zSuaoOnZaY_16protocol_handlerNtB4_15ProtocolHandler23create_success_response0B4_
FNF:17
FNH:10
DA:51,9
DA:52,9
DA:53,9
DA:54,9
DA:55,9
DA:68,9
DA:69,9
DA:70,9
DA:71,9
DA:72,9
DA:81,0
DA:82,0
DA:83,0
DA:84,0
DA:101,11
DA:103,11
DA:104,11
DA:105,0
DA:106,0
DA:110,11
DA:113,11
DA:114,8
DA:115,3
DA:117,11
DA:120,11
DA:122,11
DA:123,0
DA:124,0
DA:125,0
DA:129,11
DA:130,0
DA:131,0
DA:132,0
DA:133,11
DA:136,11
DA:138,11
DA:139,0
DA:140,0
DA:141,11
DA:144,11
DA:146,11
DA:147,0
DA:152,11
DA:153,11
DA:154,11
DA:155,11
DA:156,0
DA:157,0
DA:158,0
DA:159,11
DA:162,11
DA:163,11
DA:164,11
DA:165,11
DA:170,11
DA:171,11
DA:173,11
DA:174,0
DA:175,0
DA:176,11
DA:178,11
DA:179,11
DA:182,8
DA:183,8
DA:184,8
DA:185,8
DA:186,8
DA:187,8
DA:189,8
DA:190,0
DA:191,0
DA:192,0
DA:193,0
DA:195,0
DA:196,8
DA:199,3
DA:200,3
DA:201,3
DA:202,3
DA:203,3
DA:204,3
DA:206,3
DA:207,0
DA:209,0
DA:210,0
DA:211,0
DA:213,0
DA:214,3
DA:218,0
DA:219,0
DA:220,0
BRF:0
BRH:0
LF:100
LH:60
end_of_record